; Function Attrs: mustprogress uwtable
define hidden noundef zeroext i1 @_ZNK11value_sweep12is_reducibleEP4expr(ptr noundef nonnull align 8 dereferenceable(184) %0, ptr noundef readonly captures(none) %1) local_unnamed_addr #3 align 2 {
  %3 = getelementptr inbounds nuw i8, ptr %1, i64 4
  %4 = load i32, ptr %3, align 4
  %5 = and i32 %4, 65535
  %6 = icmp eq i32 %5, 0
  br i1 %6, label %7, label %_ZNK3app13get_family_idEv.exit7

7:                                                ; preds = %2
  %8 = getelementptr inbounds nuw i8, ptr %1, i64 16
  %9 = load ptr, ptr %8, align 8, !tbaa !54
  %10 = getelementptr inbounds nuw i8, ptr %9, i64 24
  %11 = load ptr, ptr %10, align 8, !tbaa !59
  %.not.i.i.i.i = icmp eq ptr %11, null
  br i1 %.not.i.i.i.i, label %_ZNK3app13get_family_idEv.exit, label %_ZNK6recfun4util10is_definedEP4expr.exit

_ZNK6recfun4util10is_definedEP4expr.exit:         ; preds = %7
  %12 = getelementptr inbounds nuw i8, ptr %0, i64 32
  %13 = load i32, ptr %12, align 8, !tbaa !64
  %14 = load i32, ptr %11, align 8, !tbaa !65
  %15 = icmp eq i32 %14, %13
  %16 = getelementptr inbounds nuw i8, ptr %11, i64 4
  %17 = load i32, ptr %16, align 4
  %18 = icmp eq i32 %17, 0
  %19 = select i1 %15, i1 %18, i1 false
  br i1 %19, label %_ZNK3app13get_family_idEv.exit7, label %_ZNK6recfun4util10is_definedEP4expr.exit.thread

_ZNK6recfun4util10is_definedEP4expr.exit.thread:  ; preds = %_ZNK6recfun4util10is_definedEP4expr.exit
  %20 = load i32, ptr %11, align 8, !tbaa !65
  br label %_ZNK3app13get_family_idEv.exit

_ZNK3app13get_family_idEv.exit:                   ; preds = %7, %_ZNK6recfun4util10is_definedEP4expr.exit.thread
  %21 = phi i32 [ %20, %_ZNK6recfun4util10is_definedEP4expr.exit.thread ], [ -1, %7 ]
  %22 = getelementptr inbounds nuw i8, ptr %0, i64 48
  %23 = tail call noundef i32 @_ZNK8datatype4util3fidEv(ptr noundef nonnull align 8 dereferenceable(24) %22)
  %24 = icmp eq i32 %21, %23
  br i1 %24, label %_ZNK3app13get_family_idEv.exit7, label %25

25:                                               ; preds = %_ZNK3app13get_family_idEv.exit
  %26 = load ptr, ptr %8, align 8, !tbaa !54
  %27 = getelementptr inbounds nuw i8, ptr %26, i64 24
  %28 = load ptr, ptr %27, align 8, !tbaa !59
  %29 = icmp eq ptr %28, null
  br i1 %29, label %_ZNK3app13get_family_idEv.exit7, label %30

30:                                               ; preds = %25
  %31 = load i32, ptr %28, align 8, !tbaa !65
  %32 = icmp eq i32 %31, 0
  br label %_ZNK3app13get_family_idEv.exit7

_ZNK3app13get_family_idEv.exit7:                  ; preds = %30, %25, %_ZNK6recfun4util10is_definedEP4expr.exit, %_ZNK3app13get_family_idEv.exit, %2
  %.0 = phi i1 [ false, %2 ], [ true, %_ZNK3app13get_family_idEv.exit ], [ true, %_ZNK6recfun4util10is_definedEP4expr.exit ], [ %32, %30 ], [ false, %25 ]
  ret i1 %.0
}